BL51 BANKED LINKER/LOCATER V6.22.2.0                                                    11/27/2020  19:38:40  PAGE 1


BL51 BANKED LINKER/LOCATER V6.22.2.0, INVOKED BY:
C:\PROGRAM FILES (X86)\KEIL_V5\C51\BIN\BL51.EXE .\Objects\STARTUP.obj, .\Objects\main.obj TO .\Objects\test PRINT (.\Lis
>> tings\test.m51) RAMSIZE (256)


MEMORY MODEL: SMALL


INPUT MODULES INCLUDED:
  .\Objects\STARTUP.obj (?C_STARTUP)
  .\Objects\main.obj (MAIN)


LINK MAP OF MODULE:  .\Objects\test (?C_STARTUP)


            TYPE    BASE      LENGTH    RELOCATION   SEGMENT NAME
            -----------------------------------------------------

            * * * * * * *   D A T A   M E M O R Y   * * * * * * *
            REG     0000H     0008H     ABSOLUTE     "REG BANK 0"
                    0008H     0018H                  *** GAP ***
            BIT     0020H.0   0000H.1   UNIT         ?BI?MAIN
                    0020H.1   0000H.7                *** GAP ***
            IDATA   0021H     0001H     UNIT         ?STACK

            * * * * * * *   C O D E   M E M O R Y   * * * * * * *
            CODE    0000H     0003H     ABSOLUTE     
            CODE    0003H     0031H     UNIT         ?PR?MAIN?MAIN
            CODE    0034H     0024H     UNIT         ?PR?_DAC_PCF8591?MAIN
            CODE    0058H     0021H     UNIT         ?PR?_IIC_SENDBYTE?MAIN
            CODE    0079H     001FH     UNIT         ?PR?IIC_RECEIVEBYTE?MAIN
            CODE    0098H     000FH     UNIT         ?PR?IIC_STOP?MAIN
            CODE    00A7H     000FH     UNIT         ?PR?CHECK_ACK?MAIN
            CODE    00B6H     000FH     UNIT         ?PR?_DELAY?MAIN
            CODE    00C5H     000CH     UNIT         ?C_C51STARTUP
            CODE    00D1H     000BH     UNIT         ?PR?IIC_START?MAIN
            CODE    00DCH     0009H     UNIT         ?PR?DELAY4US?MAIN



OVERLAY MAP OF MODULE:   .\Objects\test (?C_STARTUP)


SEGMENT
  +--> CALLED SEGMENT
---------------------
?C_C51STARTUP
  +--> ?PR?MAIN?MAIN

?PR?MAIN?MAIN
  +--> ?PR?_DELAY?MAIN
  +--> ?PR?_DAC_PCF8591?MAIN

?PR?_DAC_PCF8591?MAIN
  +--> ?PR?IIC_START?MAIN
  +--> ?PR?CHECK_ACK?MAIN
  +--> ?PR?_IIC_SENDBYTE?MAIN
BL51 BANKED LINKER/LOCATER V6.22.2.0                                                  11/27/2020  19:38:40  PAGE 2


  +--> ?PR?IIC_STOP?MAIN

?PR?IIC_START?MAIN
  +--> ?PR?DELAY4US?MAIN

?PR?CHECK_ACK?MAIN
  +--> ?PR?_IIC_SENDBYTE?MAIN
  +--> ?PR?DELAY4US?MAIN

?PR?_IIC_SENDBYTE?MAIN
  +--> ?PR?DELAY4US?MAIN

?PR?IIC_STOP?MAIN
  +--> ?PR?DELAY4US?MAIN



SYMBOL TABLE OF MODULE:  .\Objects\test (?C_STARTUP)

  VALUE           TYPE          NAME
  ----------------------------------

  -------         MODULE        ?C_STARTUP
  C:00C5H         SEGMENT       ?C_C51STARTUP
  I:0021H         SEGMENT       ?STACK
  C:0000H         PUBLIC        ?C_STARTUP
  D:00E0H         SYMBOL        ACC
  D:00F0H         SYMBOL        B
  D:0083H         SYMBOL        DPH
  D:0082H         SYMBOL        DPL
  N:0000H         SYMBOL        IBPSTACK
  N:0100H         SYMBOL        IBPSTACKTOP
  N:0080H         SYMBOL        IDATALEN
  C:00C8H         SYMBOL        IDATALOOP
  N:0000H         SYMBOL        PBPSTACK
  N:0100H         SYMBOL        PBPSTACKTOP
  N:0000H         SYMBOL        PDATALEN
  N:0000H         SYMBOL        PDATASTART
  N:0000H         SYMBOL        PPAGE
  N:0000H         SYMBOL        PPAGEENABLE
  D:00A0H         SYMBOL        PPAGE_SFR
  D:0081H         SYMBOL        SP
  C:00C5H         SYMBOL        STARTUP1
  N:0000H         SYMBOL        XBPSTACK
  N:0000H         SYMBOL        XBPSTACKTOP
  N:0000H         SYMBOL        XDATALEN
  N:0000H         SYMBOL        XDATASTART
  C:0000H         LINE#         126
  C:00C5H         LINE#         133
  C:00C7H         LINE#         134
  C:00C8H         LINE#         135
  C:00C9H         LINE#         136
  C:00CBH         LINE#         185
  C:00CEH         LINE#         196
  -------         ENDMOD        ?C_STARTUP

  -------         MODULE        MAIN
BL51 BANKED LINKER/LOCATER V6.22.2.0                                                  11/27/2020  19:38:40  PAGE 3


  C:0000H         SYMBOL        _ICE_DUMMY_
  D:0090H         PUBLIC        P1
  D:00B0H         PUBLIC        P3
  D:00A8H         PUBLIC        IE
  C:00E0H         PUBLIC        Delay4us
  C:00BAH         PUBLIC        _delay
  C:0079H         PUBLIC        IIC_ReceiveByte
  D:00B8H         PUBLIC        IP
  C:0003H         PUBLIC        main
  C:00AAH         PUBLIC        check_ACK
  D:0098H         PUBLIC        SCON
  D:0088H         PUBLIC        TCON
  B:00B0H.1       PUBLIC        lightDown
  B:0020H.0       PUBLIC        IIC_ERROR
  C:00D1H         PUBLIC        IIC_Start
  B:0090H.6       PUBLIC        SDA
  C:0058H         PUBLIC        _IIC_SendByte
  C:0034H         PUBLIC        _DAC_PCF8591
  C:0098H         PUBLIC        IIC_Stop
  B:00B0H.0       PUBLIC        lightUp
  B:0090H.7       PUBLIC        SCL
  D:00C8H         PUBLIC        T2CON
  D:00D0H         PUBLIC        PSW
  C:00DCH         SYMBOL        L?0032
  -------         PROC          L?0031
  -------         ENDPROC       L?0031
  C:00DCH         SYMBOL        L?0032
  -------         PROC          DELAY4US
  C:00E0H         LINE#         10
  C:00E0H         LINE#         11
  C:00E0H         LINE#         12
  C:00E1H         LINE#         13
  C:00E2H         LINE#         14
  C:00E3H         LINE#         15
  C:00E4H         LINE#         16
  -------         ENDPROC       DELAY4US
  -------         PROC          IIC_START
  C:00D1H         LINE#         20
  C:00D1H         LINE#         21
  C:00D1H         LINE#         22
  C:00D1H         LINE#         23
  C:00D1H         LINE#         24
  C:00D4H         LINE#         25
  C:00D6H         LINE#         26
  C:00D9H         LINE#         27
  C:00DBH         LINE#         28
  -------         ENDPROC       IIC_START
  -------         PROC          IIC_STOP
  C:0098H         LINE#         32
  C:0098H         LINE#         33
  C:0098H         LINE#         34
  C:009AH         LINE#         35
  C:009CH         LINE#         36
  C:009FH         LINE#         37
  C:00A1H         LINE#         38
  C:00A4H         LINE#         39
  C:00A6H         LINE#         40
BL51 BANKED LINKER/LOCATER V6.22.2.0                                                  11/27/2020  19:38:40  PAGE 4


  -------         ENDPROC       IIC_STOP
  -------         PROC          _IIC_SENDBYTE
  D:0007H         SYMBOL        sendData
  -------         DO            
  D:0006H         SYMBOL        i
  -------         ENDDO         
  C:0058H         LINE#         44
  C:0058H         LINE#         45
  C:0058H         LINE#         46
  C:0058H         LINE#         47
  C:0064H         LINE#         48
  C:0064H         LINE#         49
  C:0068H         LINE#         52
  C:006AH         LINE#         53
  C:006DH         LINE#         54
  C:006FH         LINE#         55
  C:0073H         LINE#         56
  C:0076H         LINE#         57
  -------         ENDPROC       _IIC_SENDBYTE
  -------         PROC          L?0035
  -------         ENDPROC       L?0035
  -------         PROC          CHECK_ACK
  C:00AAH         LINE#         62
  C:00AAH         LINE#         63
  C:00AAH         LINE#         64
  C:00AAH         LINE#         65
  C:00AAH         LINE#         66
  C:00ADH         LINE#         67
  C:00B1H         LINE#         68
  C:00B3H         LINE#         69
  -------         ENDPROC       CHECK_ACK
  -------         PROC          IIC_RECEIVEBYTE
  -------         DO            
  D:0006H         SYMBOL        i
  D:0007H         SYMBOL        receiveData
  -------         ENDDO         
  C:0079H         LINE#         74
  C:0079H         LINE#         75
  C:0079H         LINE#         76
  C:007BH         LINE#         78
  C:0081H         LINE#         79
  C:0081H         LINE#         80
  C:0081H         LINE#         81
  C:0081H         LINE#         82
  C:0084H         LINE#         83
  C:0087H         LINE#         84
  C:0087H         LINE#         85
  C:008AH         LINE#         87
  C:008CH         LINE#         89
  C:008CH         LINE#         90
  C:008FH         LINE#         91
  C:008FH         LINE#         92
  C:0091H         LINE#         93
  C:0095H         LINE#         94
  C:0097H         LINE#         95
  C:0097H         LINE#         96
  -------         ENDPROC       IIC_RECEIVEBYTE
BL51 BANKED LINKER/LOCATER V6.22.2.0                                                  11/27/2020  19:38:40  PAGE 5


  -------         PROC          _DAC_PCF8591
  D:0004H         SYMBOL        controlByte
  D:0005H         SYMBOL        writeData
  C:0034H         LINE#         99
  C:0036H         LINE#         100
  C:0036H         LINE#         101
  C:0039H         LINE#         102
  C:003BH         LINE#         103
  C:003EH         LINE#         104
  C:0041H         LINE#         106
  C:0043H         LINE#         107
  C:0046H         LINE#         108
  C:0049H         LINE#         110
  C:004EH         LINE#         111
  C:0051H         LINE#         112
  C:0054H         LINE#         114
  C:0057H         LINE#         115
  -------         ENDPROC       _DAC_PCF8591
  C:00B6H         SYMBOL        L?0034
  -------         PROC          L?0033
  -------         ENDPROC       L?0033
  C:00B6H         SYMBOL        L?0034
  -------         PROC          _DELAY
  D:0006H         SYMBOL        i
  C:00BAH         LINE#         119
  C:00BAH         LINE#         120
  C:00BAH         LINE#         121
  C:00C4H         LINE#         123
  -------         ENDPROC       _DELAY
  -------         PROC          MAIN
  -------         DO            
  D:0003H         SYMBOL        i
  -------         ENDDO         
  C:0003H         LINE#         126
  C:0003H         LINE#         127
  C:0003H         LINE#         128
  C:0005H         LINE#         129
  C:0005H         LINE#         130
  C:0005H         LINE#         131
  C:0008H         LINE#         132
  C:0008H         LINE#         133
  C:000BH         LINE#         134
  C:000EH         LINE#         135
  C:000EH         LINE#         138
  C:0012H         LINE#         139
  C:0015H         LINE#         140
  C:0017H         LINE#         141
  C:0017H         LINE#         142
  C:0017H         LINE#         143
  C:001AH         LINE#         144
  C:001AH         LINE#         145
  C:001DH         LINE#         146
  C:0020H         LINE#         147
  C:0020H         LINE#         150
  C:0024H         LINE#         151
  C:0026H         LINE#         152
  C:0028H         LINE#         153
BL51 BANKED LINKER/LOCATER V6.22.2.0                                                  11/27/2020  19:38:40  PAGE 6


  C:0028H         LINE#         154
  C:0028H         LINE#         155
  C:002FH         LINE#         156
  C:0032H         LINE#         157
  -------         ENDPROC       MAIN
  -------         ENDMOD        MAIN

*** WARNING L16: UNCALLED SEGMENT, IGNORED FOR OVERLAY PROCESS
    SEGMENT: ?PR?IIC_RECEIVEBYTE?MAIN

Program Size: data=9.1 xdata=0 code=229
LINK/LOCATE RUN COMPLETE.  1 WARNING(S),  0 ERROR(S)
