BL51 BANKED LINKER/LOCATER V6.22.2.0                                                    12/05/2020  22:15:41  PAGE 1


BL51 BANKED LINKER/LOCATER V6.22.2.0, INVOKED BY:
C:\PROGRAM FILES (X86)\KEIL_V5\C51\BIN\BL51.EXE .\Objects\STARTUP.obj, .\Objects\lcd.obj, .\Objects\main.obj TO .\Object
>> s\test PRINT (.\Listings\test.m51) RAMSIZE (256)


MEMORY MODEL: SMALL


INPUT MODULES INCLUDED:
  .\Objects\STARTUP.obj (?C_STARTUP)
  .\Objects\lcd.obj (LCD)
  .\Objects\main.obj (MAIN)
  C:\PROGRAM FILES (X86)\KEIL_V5\C51\LIB\C51S.LIB (?C?COPY)


LINK MAP OF MODULE:  .\Objects\test (?C_STARTUP)


            TYPE    BASE      LENGTH    RELOCATION   SEGMENT NAME
            -----------------------------------------------------

            * * * * * * *   D A T A   M E M O R Y   * * * * * * *
            REG     0000H     0008H     ABSOLUTE     "REG BANK 0"
            DATA    0008H     0019H     UNIT         _DATA_GROUP_
            IDATA   0021H     0001H     UNIT         ?STACK

            * * * * * * *   C O D E   M E M O R Y   * * * * * * *
            CODE    0000H     0003H     ABSOLUTE     
            CODE    0003H     00F6H     UNIT         ?C?LIB_CODE
            CODE    00F9H     0081H     UNIT         ?PR?MAIN?MAIN
            CODE    017AH     002FH     UNIT         ?PR?_LCD_W_CMD?LCD
            CODE    01A9H     002FH     UNIT         ?PR?_LCD_W_DAT?LCD
            CODE    01D8H     0022H     UNIT         ?PR?LCD_R_START?LCD
            CODE    01FAH     0019H     UNIT         ?PR?LCD_INT?LCD
            CODE    0213H     0015H     UNIT         ?CO?MAIN
            CODE    0228H     000CH     UNIT         ?C_C51STARTUP
            CODE    0234H     000BH     UNIT         ?PR?_DELAY?LCD
            CODE    023FH     0004H     UNIT         ?PR?DELAY_3US?LCD



OVERLAY MAP OF MODULE:   .\Objects\test (?C_STARTUP)


SEGMENT                          DATA_GROUP 
  +--> CALLED SEGMENT          START    LENGTH
----------------------------------------------
?C_C51STARTUP                  -----    -----
  +--> ?PR?MAIN?MAIN

?PR?MAIN?MAIN                  0008H    0016H
  +--> ?CO?MAIN
  +--> ?PR?LCD_INT?LCD
  +--> ?PR?_DELAY?LCD
  +--> ?PR?_LCD_W_CMD?LCD
  +--> ?PR?_LCD_W_DAT?LCD

?PR?LCD_INT?LCD                -----    -----
BL51 BANKED LINKER/LOCATER V6.22.2.0                                                  12/05/2020  22:15:41  PAGE 2


  +--> ?PR?_LCD_W_CMD?LCD

?PR?_LCD_W_CMD?LCD             001EH    0002H
  +--> ?PR?LCD_R_START?LCD
  +--> ?PR?_DELAY?LCD
  +--> ?PR?DELAY_3US?LCD

?PR?LCD_R_START?LCD            0020H    0001H
  +--> ?PR?DELAY_3US?LCD

?PR?_LCD_W_DAT?LCD             001EH    0002H
  +--> ?PR?LCD_R_START?LCD
  +--> ?PR?_DELAY?LCD
  +--> ?PR?DELAY_3US?LCD



SYMBOL TABLE OF MODULE:  .\Objects\test (?C_STARTUP)

  VALUE           TYPE          NAME
  ----------------------------------

  -------         MODULE        ?C_STARTUP
  C:0228H         SEGMENT       ?C_C51STARTUP
  I:0021H         SEGMENT       ?STACK
  C:0000H         PUBLIC        ?C_STARTUP
  D:00E0H         SYMBOL        ACC
  D:00F0H         SYMBOL        B
  D:0083H         SYMBOL        DPH
  D:0082H         SYMBOL        DPL
  N:0000H         SYMBOL        IBPSTACK
  N:0100H         SYMBOL        IBPSTACKTOP
  N:0080H         SYMBOL        IDATALEN
  C:022BH         SYMBOL        IDATALOOP
  N:0000H         SYMBOL        PBPSTACK
  N:0100H         SYMBOL        PBPSTACKTOP
  N:0000H         SYMBOL        PDATALEN
  N:0000H         SYMBOL        PDATASTART
  N:0000H         SYMBOL        PPAGE
  N:0000H         SYMBOL        PPAGEENABLE
  D:00A0H         SYMBOL        PPAGE_SFR
  D:0081H         SYMBOL        SP
  C:0228H         SYMBOL        STARTUP1
  N:0000H         SYMBOL        XBPSTACK
  N:0000H         SYMBOL        XBPSTACKTOP
  N:0000H         SYMBOL        XDATALEN
  N:0000H         SYMBOL        XDATASTART
  C:0000H         LINE#         126
  C:0228H         LINE#         133
  C:022AH         LINE#         134
  C:022BH         LINE#         135
  C:022CH         LINE#         136
  C:022EH         LINE#         185
  C:0231H         LINE#         196
  -------         ENDMOD        ?C_STARTUP

  -------         MODULE        LCD
BL51 BANKED LINKER/LOCATER V6.22.2.0                                                  12/05/2020  22:15:41  PAGE 3


  C:0000H         SYMBOL        _ICE_DUMMY_
  D:0090H         PUBLIC        P1
  D:00B0H         PUBLIC        P3
  C:023FH         PUBLIC        delay_3us
  C:0234H         PUBLIC        _delay
  C:01D8H         PUBLIC        lcd_r_start
  C:017AH         PUBLIC        _lcd_w_cmd
  B:00B0H.0       PUBLIC        RS
  C:01A9H         PUBLIC        _lcd_w_dat
  B:00B0H.1       PUBLIC        RW
  B:00B0H.2       PUBLIC        E
  C:01FAH         PUBLIC        lcd_int
  -------         PROC          LCD_INT
  C:01FAH         LINE#         14
  C:01FAH         LINE#         15
  C:01FAH         LINE#         16
  C:01FFH         LINE#         17
  C:0204H         LINE#         18
  C:0209H         LINE#         19
  C:020EH         LINE#         20
  -------         ENDPROC       LCD_INT
  -------         PROC          LCD_R_START
  -------         DO            
  D:0020H         SYMBOL        s
  -------         ENDDO         
  C:01D8H         LINE#         26
  C:01D8H         LINE#         27
  C:01D8H         LINE#         29
  C:01DAH         LINE#         30
  C:01DDH         LINE#         31
  C:01DFH         LINE#         32
  C:01E2H         LINE#         33
  C:01E4H         LINE#         34
  C:01E7H         LINE#         35
  C:01EAH         LINE#         36
  C:01EDH         LINE#         37
  C:01EFH         LINE#         38
  C:01F2H         LINE#         39
  C:01F4H         LINE#         40
  C:01F7H         LINE#         41
  C:01F9H         LINE#         42
  -------         ENDPROC       LCD_R_START
  -------         PROC          _LCD_W_CMD
  D:001EH         SYMBOL        com
  -------         DO            
  D:001FH         SYMBOL        i
  -------         ENDDO         
  C:017AH         LINE#         47
  C:017CH         LINE#         48
  C:017CH         LINE#         51
  C:017CH         LINE#         52
  C:0181H         LINE#         53
  C:0184H         LINE#         54
  C:018BH         LINE#         55
  C:018FH         LINE#         56
  C:0191H         LINE#         57
  C:0194H         LINE#         58
BL51 BANKED LINKER/LOCATER V6.22.2.0                                                  12/05/2020  22:15:41  PAGE 4


  C:0196H         LINE#         59
  C:0199H         LINE#         60
  C:019BH         LINE#         61
  C:019EH         LINE#         62
  C:01A1H         LINE#         63
  C:01A4H         LINE#         64
  C:01A6H         LINE#         65
  -------         ENDPROC       _LCD_W_CMD
  -------         PROC          _LCD_W_DAT
  D:001EH         SYMBOL        dat
  -------         DO            
  D:001FH         SYMBOL        i
  -------         ENDDO         
  C:01A9H         LINE#         71
  C:01ABH         LINE#         72
  C:01ABH         LINE#         75
  C:01ABH         LINE#         76
  C:01B0H         LINE#         77
  C:01B3H         LINE#         78
  C:01BAH         LINE#         79
  C:01BEH         LINE#         80
  C:01C0H         LINE#         81
  C:01C3H         LINE#         82
  C:01C5H         LINE#         83
  C:01C8H         LINE#         84
  C:01CAH         LINE#         85
  C:01CDH         LINE#         86
  C:01D0H         LINE#         87
  C:01D3H         LINE#         88
  C:01D5H         LINE#         89
  -------         ENDPROC       _LCD_W_DAT
  -------         PROC          DELAY_3US
  C:023FH         LINE#         95
  C:023FH         LINE#         96
  C:023FH         LINE#         97
  C:0240H         LINE#         98
  C:0241H         LINE#         99
  C:0242H         LINE#         100
  -------         ENDPROC       DELAY_3US
  -------         PROC          _DELAY
  D:0006H         SYMBOL        i
  C:0234H         LINE#         106
  C:0234H         LINE#         107
  C:0234H         LINE#         108
  C:023EH         LINE#         110
  -------         ENDPROC       _DELAY
  -------         ENDMOD        LCD

  -------         MODULE        MAIN
  C:0000H         SYMBOL        _ICE_DUMMY_
  D:0090H         PUBLIC        P1
  C:00F9H         PUBLIC        main
  C:0213H         SYMBOL        _?ix1000
  C:021DH         SYMBOL        _?ix1001
  -------         PROC          MAIN
  -------         DO            
  D:0008H         SYMBOL        lcd1
BL51 BANKED LINKER/LOCATER V6.22.2.0                                                  12/05/2020  22:15:41  PAGE 5


  D:0012H         SYMBOL        lcd2
  D:001DH         SYMBOL        i
  -------         ENDDO         
  C:00F9H         LINE#         4
  C:00F9H         LINE#         5
  C:00F9H         LINE#         6
  C:010CH         LINE#         7
  C:011FH         LINE#         9
  C:0122H         LINE#         10
  C:0125H         LINE#         11
  C:012CH         LINE#         12
  C:0131H         LINE#         13
  C:0138H         LINE#         14
  C:0144H         LINE#         15
  C:0144H         LINE#         16
  C:0147H         LINE#         17
  C:014EH         LINE#         18
  C:0152H         LINE#         19
  C:0157H         LINE#         20
  C:015EH         LINE#         21
  C:016AH         LINE#         22
  C:016AH         LINE#         23
  C:016DH         LINE#         24
  C:0174H         LINE#         25
  C:0178H         LINE#         26
  -------         ENDPROC       MAIN
  -------         ENDMOD        MAIN

  -------         MODULE        ?C?COPY
  C:00D3H         PUBLIC        ?C?COPY
  -------         ENDMOD        ?C?COPY

Program Size: data=34.0 xdata=0 code=579
LINK/LOCATE RUN COMPLETE.  0 WARNING(S),  0 ERROR(S)
