BL51 BANKED LINKER/LOCATER V6.22.2.0                                                    12/23/2020  19:28:27  PAGE 1


BL51 BANKED LINKER/LOCATER V6.22.2.0, INVOKED BY:
C:\PROGRAM FILES (X86)\KEIL_V5\C51\BIN\BL51.EXE .\Objects\STARTUP.obj, .\Objects\main.obj TO .\Objects\test PRINT (.\Lis
>> tings\test.m51) RAMSIZE (256)


MEMORY MODEL: SMALL


INPUT MODULES INCLUDED:
  .\Objects\STARTUP.obj (?C_STARTUP)
  .\Objects\main.obj (MAIN)


LINK MAP OF MODULE:  .\Objects\test (?C_STARTUP)


            TYPE    BASE      LENGTH    RELOCATION   SEGMENT NAME
            -----------------------------------------------------

            * * * * * * *   D A T A   M E M O R Y   * * * * * * *
            REG     0000H     0008H     ABSOLUTE     "REG BANK 0"
                    0008H     0018H                  *** GAP ***
            BIT     0020H.0   0000H.1   UNIT         ?BI?MAIN
                    0020H.1   0000H.7                *** GAP ***
            IDATA   0021H     0001H     UNIT         ?STACK

            * * * * * * *   C O D E   M E M O R Y   * * * * * * *
            CODE    0000H     0003H     ABSOLUTE     
            CODE    0003H     003DH     UNIT         ?PR?MAIN?MAIN
            CODE    0040H     0024H     UNIT         ?PR?_DAC_PCF8591?MAIN
            CODE    0064H     0021H     UNIT         ?PR?_IIC_SENDBYTE?MAIN
            CODE    0085H     0013H     UNIT         ?PR?CHECK_ACK?MAIN
            CODE    0098H     000FH     UNIT         ?PR?IIC_START?MAIN
            CODE    00A7H     000FH     UNIT         ?PR?IIC_STOP?MAIN
            CODE    00B6H     000FH     UNIT         ?PR?_DELAY?MAIN
            CODE    00C5H     000CH     UNIT         ?C_C51STARTUP
            CODE    00D1H     0005H     UNIT         ?PR?DELAY4US?MAIN



OVERLAY MAP OF MODULE:   .\Objects\test (?C_STARTUP)


SEGMENT
  +--> CALLED SEGMENT
---------------------
?C_C51STARTUP
  +--> ?PR?MAIN?MAIN

?PR?MAIN?MAIN
  +--> ?PR?_DAC_PCF8591?MAIN
  +--> ?PR?_DELAY?MAIN

?PR?_DAC_PCF8591?MAIN
  +--> ?PR?IIC_START?MAIN
  +--> ?PR?CHECK_ACK?MAIN
  +--> ?PR?_IIC_SENDBYTE?MAIN
  +--> ?PR?IIC_STOP?MAIN
BL51 BANKED LINKER/LOCATER V6.22.2.0                                                  12/23/2020  19:28:27  PAGE 2



?PR?IIC_START?MAIN
  +--> ?PR?DELAY4US?MAIN

?PR?CHECK_ACK?MAIN
  +--> ?PR?_IIC_SENDBYTE?MAIN
  +--> ?PR?DELAY4US?MAIN

?PR?_IIC_SENDBYTE?MAIN
  +--> ?PR?DELAY4US?MAIN

?PR?IIC_STOP?MAIN
  +--> ?PR?DELAY4US?MAIN



SYMBOL TABLE OF MODULE:  .\Objects\test (?C_STARTUP)

  VALUE           TYPE          NAME
  ----------------------------------

  -------         MODULE        ?C_STARTUP
  C:00C5H         SEGMENT       ?C_C51STARTUP
  I:0021H         SEGMENT       ?STACK
  C:0000H         PUBLIC        ?C_STARTUP
  D:00E0H         SYMBOL        ACC
  D:00F0H         SYMBOL        B
  D:0083H         SYMBOL        DPH
  D:0082H         SYMBOL        DPL
  N:0000H         SYMBOL        IBPSTACK
  N:0100H         SYMBOL        IBPSTACKTOP
  N:0080H         SYMBOL        IDATALEN
  C:00C8H         SYMBOL        IDATALOOP
  N:0000H         SYMBOL        PBPSTACK
  N:0100H         SYMBOL        PBPSTACKTOP
  N:0000H         SYMBOL        PDATALEN
  N:0000H         SYMBOL        PDATASTART
  N:0000H         SYMBOL        PPAGE
  N:0000H         SYMBOL        PPAGEENABLE
  D:00A0H         SYMBOL        PPAGE_SFR
  D:0081H         SYMBOL        SP
  C:00C5H         SYMBOL        STARTUP1
  N:0000H         SYMBOL        XBPSTACK
  N:0000H         SYMBOL        XBPSTACKTOP
  N:0000H         SYMBOL        XDATALEN
  N:0000H         SYMBOL        XDATASTART
  C:0000H         LINE#         126
  C:00C5H         LINE#         133
  C:00C7H         LINE#         134
  C:00C8H         LINE#         135
  C:00C9H         LINE#         136
  C:00CBH         LINE#         185
  C:00CEH         LINE#         196
  -------         ENDMOD        ?C_STARTUP

  -------         MODULE        MAIN
  C:0000H         SYMBOL        _ICE_DUMMY_
BL51 BANKED LINKER/LOCATER V6.22.2.0                                                  12/23/2020  19:28:27  PAGE 3


  D:0090H         PUBLIC        P1
  D:00B0H         PUBLIC        P3
  D:00A8H         PUBLIC        IE
  C:00D1H         PUBLIC        Delay4us
  C:00BAH         PUBLIC        _delay
  D:00B8H         PUBLIC        IP
  C:0003H         PUBLIC        main
  C:0088H         PUBLIC        check_ACK
  D:0098H         PUBLIC        SCON
  D:0088H         PUBLIC        TCON
  B:00B0H.1       PUBLIC        lightDown
  B:0020H.0       PUBLIC        IIC_ERROR
  C:0098H         PUBLIC        IIC_Start
  B:0090H.6       PUBLIC        SDA
  C:0064H         PUBLIC        _IIC_SendByte
  C:0040H         PUBLIC        _DAC_PCF8591
  C:00A7H         PUBLIC        IIC_Stop
  B:00B0H.0       PUBLIC        lightUp
  B:0090H.7       PUBLIC        SCL
  D:00C8H         PUBLIC        T2CON
  D:00D0H         PUBLIC        PSW
  -------         PROC          DELAY4US
  C:00D1H         LINE#         10
  C:00D1H         LINE#         11
  C:00D1H         LINE#         12
  C:00D2H         LINE#         13
  C:00D3H         LINE#         14
  C:00D4H         LINE#         15
  C:00D5H         LINE#         16
  -------         ENDPROC       DELAY4US
  -------         PROC          IIC_START
  C:0098H         LINE#         20
  C:0098H         LINE#         21
  C:0098H         LINE#         22
  C:009AH         LINE#         23
  C:009CH         LINE#         24
  C:009FH         LINE#         25
  C:00A1H         LINE#         26
  C:00A4H         LINE#         27
  C:00A6H         LINE#         28
  -------         ENDPROC       IIC_START
  -------         PROC          IIC_STOP
  C:00A7H         LINE#         32
  C:00A7H         LINE#         33
  C:00A7H         LINE#         34
  C:00A9H         LINE#         35
  C:00ABH         LINE#         36
  C:00AEH         LINE#         37
  C:00B0H         LINE#         38
  C:00B3H         LINE#         39
  C:00B5H         LINE#         40
  -------         ENDPROC       IIC_STOP
  -------         PROC          _IIC_SENDBYTE
  D:0007H         SYMBOL        sendData
  -------         DO            
  D:0006H         SYMBOL        i
  -------         ENDDO         
BL51 BANKED LINKER/LOCATER V6.22.2.0                                                  12/23/2020  19:28:27  PAGE 4


  C:0064H         LINE#         44
  C:0064H         LINE#         45
  C:0064H         LINE#         46
  C:0064H         LINE#         47
  C:0070H         LINE#         48
  C:0070H         LINE#         49
  C:0074H         LINE#         52
  C:0076H         LINE#         53
  C:0079H         LINE#         54
  C:007BH         LINE#         55
  C:007FH         LINE#         56
  C:0082H         LINE#         57
  -------         ENDPROC       _IIC_SENDBYTE
  -------         PROC          L?0032
  -------         ENDPROC       L?0032
  -------         PROC          CHECK_ACK
  C:0088H         LINE#         62
  C:0088H         LINE#         63
  C:0088H         LINE#         64
  C:008AH         LINE#         65
  C:008CH         LINE#         66
  C:008FH         LINE#         67
  C:0093H         LINE#         68
  C:0095H         LINE#         69
  -------         ENDPROC       CHECK_ACK
  -------         PROC          _DAC_PCF8591
  D:0004H         SYMBOL        controlByte
  D:0005H         SYMBOL        writeData
  C:0040H         LINE#         74
  C:0042H         LINE#         75
  C:0042H         LINE#         76
  C:0045H         LINE#         77
  C:0047H         LINE#         78
  C:004AH         LINE#         79
  C:004DH         LINE#         81
  C:004FH         LINE#         82
  C:0052H         LINE#         83
  C:0055H         LINE#         85
  C:005AH         LINE#         86
  C:005DH         LINE#         87
  C:0060H         LINE#         89
  C:0063H         LINE#         90
  -------         ENDPROC       _DAC_PCF8591
  C:00B6H         SYMBOL        L?0031
  -------         PROC          L?0030
  -------         ENDPROC       L?0030
  C:00B6H         SYMBOL        L?0031
  -------         PROC          _DELAY
  D:0006H         SYMBOL        i
  C:00BAH         LINE#         94
  C:00BAH         LINE#         95
  C:00BAH         LINE#         96
  C:00C4H         LINE#         98
  -------         ENDPROC       _DELAY
  -------         PROC          MAIN
  -------         DO            
  D:0003H         SYMBOL        i
BL51 BANKED LINKER/LOCATER V6.22.2.0                                                  12/23/2020  19:28:27  PAGE 5


  -------         ENDDO         
  C:0003H         LINE#         101
  C:0003H         LINE#         102
  C:0003H         LINE#         103
  C:0005H         LINE#         104
  C:0005H         LINE#         105
  C:0005H         LINE#         106
  C:000CH         LINE#         107
  C:000FH         LINE#         108
  C:0012H         LINE#         109
  C:0012H         LINE#         110
  C:0015H         LINE#         111
  C:0018H         LINE#         112
  C:0018H         LINE#         113
  C:001BH         LINE#         114
  C:001EH         LINE#         115
  C:0022H         LINE#         116
  C:0025H         LINE#         117
  C:0027H         LINE#         118
  C:0027H         LINE#         119
  C:0027H         LINE#         120
  C:002AH         LINE#         121
  C:002AH         LINE#         122
  C:002DH         LINE#         123
  C:0030H         LINE#         124
  C:0030H         LINE#         125
  C:0033H         LINE#         126
  C:0036H         LINE#         127
  C:003AH         LINE#         128
  C:003CH         LINE#         129
  C:003EH         LINE#         130
  C:003EH         LINE#         131
  C:003EH         LINE#         132
  -------         ENDPROC       MAIN
  -------         ENDMOD        MAIN

Program Size: data=9.1 xdata=0 code=214
LINK/LOCATE RUN COMPLETE.  0 WARNING(S),  0 ERROR(S)
