BL51 BANKED LINKER/LOCATER V6.22.2.0                                                    11/24/2020  16:33:19  PAGE 1


BL51 BANKED LINKER/LOCATER V6.22.2.0, INVOKED BY:
C:\PROGRAM FILES (X86)\KEIL_V5\C51\BIN\BL51.EXE .\Objects\STARTUP.obj, .\Objects\main.obj TO .\Objects\test PRINT (.\Lis
>> tings\test.m51) RAMSIZE (256)


MEMORY MODEL: SMALL


INPUT MODULES INCLUDED:
  .\Objects\STARTUP.obj (?C_STARTUP)
  .\Objects\main.obj (MAIN)


LINK MAP OF MODULE:  .\Objects\test (?C_STARTUP)


            TYPE    BASE      LENGTH    RELOCATION   SEGMENT NAME
            -----------------------------------------------------

            * * * * * * *   D A T A   M E M O R Y   * * * * * * *
            REG     0000H     0008H     ABSOLUTE     "REG BANK 0"
            IDATA   0008H     0001H     UNIT         ?ID?IICRECEIVEBYTE?MAIN
            IDATA   0009H     0001H     UNIT         _IDATA_GROUP_
                    000AH     0016H                  *** GAP ***
            BIT     0020H.0   0000H.1   UNIT         ?BI?MAIN
                    0020H.1   0000H.7                *** GAP ***
            IDATA   0021H     0001H     UNIT         ?STACK

            * * * * * * *   C O D E   M E M O R Y   * * * * * * *
            CODE    0000H     0003H     ABSOLUTE     
                    0003H     07FDH                  *** GAP ***
            CODE    0800H     0047H     UNIT         ?PR?_DAC_PCF8591?MAIN
            CODE    0847H     003DH     UNIT         ?PR?MAIN?MAIN
            CODE    0884H     0030H     UNIT         ?PR?_IICSENDBYTE?MAIN
            CODE    08B4H     0022H     UNIT         ?PR?IICRECEIVEBYTE?MAIN
            CODE    08D6H     001BH     UNIT         ?PR?_DELAY_MS?MAIN
            CODE    08F1H     0013H     UNIT         ?PR?IIC_START?MAIN
            CODE    0904H     0011H     UNIT         ?PR?IIC_STOP?MAIN
            CODE    0915H     000EH     UNIT         ?PR?CHECK_ACK?MAIN
            CODE    0923H     000DH     UNIT         ?PR?SLAVE_ACK?MAIN
            CODE    0930H     000DH     UNIT         ?PR?SLAVE_NOACK?MAIN
            CODE    093DH     000CH     UNIT         ?C_C51STARTUP



OVERLAY MAP OF MODULE:   .\Objects\test (?C_STARTUP)


SEGMENT                           IDATA_GROUP
  +--> CALLED SEGMENT           START    LENGTH
-----------------------------------------------
?C_C51STARTUP                   -----    -----
  +--> ?PR?MAIN?MAIN

?PR?MAIN?MAIN                   -----    -----
  +--> ?PR?_DAC_PCF8591?MAIN
  +--> ?PR?_DELAY_MS?MAIN

BL51 BANKED LINKER/LOCATER V6.22.2.0                                                  11/24/2020  16:33:19  PAGE 2


?PR?_DAC_PCF8591?MAIN           -----    -----
  +--> ?PR?IIC_START?MAIN
  +--> ?PR?_IICSENDBYTE?MAIN
  +--> ?PR?CHECK_ACK?MAIN
  +--> ?PR?IIC_STOP?MAIN

?PR?_IICSENDBYTE?MAIN           0009H    0001H



SYMBOL TABLE OF MODULE:  .\Objects\test (?C_STARTUP)

  VALUE           TYPE          NAME
  ----------------------------------

  -------         MODULE        ?C_STARTUP
  C:093DH         SEGMENT       ?C_C51STARTUP
  I:0021H         SEGMENT       ?STACK
  C:0000H         PUBLIC        ?C_STARTUP
  D:00E0H         SYMBOL        ACC
  D:00F0H         SYMBOL        B
  D:0083H         SYMBOL        DPH
  D:0082H         SYMBOL        DPL
  N:0000H         SYMBOL        IBPSTACK
  N:0100H         SYMBOL        IBPSTACKTOP
  N:0080H         SYMBOL        IDATALEN
  C:0940H         SYMBOL        IDATALOOP
  N:0000H         SYMBOL        PBPSTACK
  N:0100H         SYMBOL        PBPSTACKTOP
  N:0000H         SYMBOL        PDATALEN
  N:0000H         SYMBOL        PDATASTART
  N:0000H         SYMBOL        PPAGE
  N:0000H         SYMBOL        PPAGEENABLE
  D:00A0H         SYMBOL        PPAGE_SFR
  D:0081H         SYMBOL        SP
  C:093DH         SYMBOL        STARTUP1
  N:0000H         SYMBOL        XBPSTACK
  N:0000H         SYMBOL        XBPSTACKTOP
  N:0000H         SYMBOL        XDATALEN
  N:0000H         SYMBOL        XDATASTART
  C:0000H         LINE#         126
  C:093DH         LINE#         133
  C:093FH         LINE#         134
  C:0940H         LINE#         135
  C:0941H         LINE#         136
  C:0943H         LINE#         185
  C:0946H         LINE#         196
  -------         ENDMOD        ?C_STARTUP

  -------         MODULE        MAIN
  C:0000H         SYMBOL        _ICE_DUMMY_
  D:0090H         PUBLIC        P1
  D:00A0H         PUBLIC        P2
  B:0090H.1       PUBLIC        S1
  B:0090H.0       PUBLIC        S2
  B:00A8H.7       PUBLIC        EA
  B:0020H.0       PUBLIC        SystemError
BL51 BANKED LINKER/LOCATER V6.22.2.0                                                  11/24/2020  16:33:19  PAGE 3


  C:0847H         PUBLIC        main
  C:0915H         PUBLIC        check_ACK
  C:08B4H         PUBLIC        IICReceiveByte
  D:0089H         PUBLIC        TMOD
  C:08F1H         PUBLIC        iic_start
  B:0088H.7       PUBLIC        TF1
  D:008DH         PUBLIC        TH1
  C:0923H         PUBLIC        slave_ACK
  D:008BH         PUBLIC        TL1
  C:08D6H         PUBLIC        _delay_ms
  B:0088H.6       PUBLIC        TR1
  B:00A0H.7       PUBLIC        SDA
  C:0800H         PUBLIC        _DAC_PCF8591
  C:0904H         PUBLIC        iic_stop
  B:00A0H.6       PUBLIC        SCL
  C:0930H         PUBLIC        slave_NOACK
  B:00D0H.5       PUBLIC        F0
  C:0884H         PUBLIC        _IICSendByte
  -------         PROC          IIC_START
  C:08F1H         LINE#         24
  C:08F1H         LINE#         25
  C:08F1H         LINE#         26
  C:08F3H         LINE#         27
  C:08F5H         LINE#         28
  C:08F7H         LINE#         29
  C:08FBH         LINE#         30
  C:08FDH         LINE#         31
  C:0901H         LINE#         32
  C:0903H         LINE#         33
  -------         ENDPROC       IIC_START
  -------         PROC          IIC_STOP
  C:0904H         LINE#         37
  C:0904H         LINE#         38
  C:0904H         LINE#         39
  C:0906H         LINE#         40
  C:0908H         LINE#         41
  C:090CH         LINE#         42
  C:090EH         LINE#         43
  C:0912H         LINE#         44
  C:0914H         LINE#         45
  -------         ENDPROC       IIC_STOP
  -------         PROC          SLAVE_ACK
  C:0923H         LINE#         49
  C:0923H         LINE#         50
  C:0923H         LINE#         51
  C:0925H         LINE#         52
  C:0927H         LINE#         53
  C:092BH         LINE#         54
  C:092DH         LINE#         55
  C:092FH         LINE#         56
  -------         ENDPROC       SLAVE_ACK
  -------         PROC          SLAVE_NOACK
  C:0930H         LINE#         60
  C:0930H         LINE#         61
  C:0930H         LINE#         62
  C:0932H         LINE#         63
  C:0934H         LINE#         64
BL51 BANKED LINKER/LOCATER V6.22.2.0                                                  11/24/2020  16:33:19  PAGE 4


  C:0938H         LINE#         65
  C:093AH         LINE#         66
  C:093CH         LINE#         67
  -------         ENDPROC       SLAVE_NOACK
  -------         PROC          CHECK_ACK
  C:0915H         LINE#         71
  C:0915H         LINE#         72
  C:0915H         LINE#         73
  C:0917H         LINE#         74
  C:0919H         LINE#         75
  C:091BH         LINE#         76
  C:091EH         LINE#         77
  C:091EH         LINE#         78
  C:0920H         LINE#         79
  C:0920H         LINE#         80
  C:0922H         LINE#         81
  -------         ENDPROC       CHECK_ACK
  -------         PROC          _IICSENDBYTE
  D:0007H         SYMBOL        sData
  -------         DO            
  I:0009H         SYMBOL        n
  -------         ENDDO         
  C:0884H         LINE#         85
  C:0884H         LINE#         86
  C:0884H         LINE#         87
  C:0888H         LINE#         88
  C:088EH         LINE#         89
  C:088EH         LINE#         90
  C:0895H         LINE#         91
  C:0895H         LINE#         92
  C:0897H         LINE#         93
  C:0899H         LINE#         94
  C:089DH         LINE#         95
  C:089FH         LINE#         96
  C:08A1H         LINE#         97
  C:08A3H         LINE#         99
  C:08A3H         LINE#         100
  C:08A5H         LINE#         101
  C:08A7H         LINE#         102
  C:08ABH         LINE#         103
  C:08ADH         LINE#         104
  C:08ADH         LINE#         105
  C:08B1H         LINE#         106
  C:08B3H         LINE#         107
  -------         ENDPROC       _IICSENDBYTE
  -------         PROC          IICRECEIVEBYTE
  -------         DO            
  I:0008H         SYMBOL        n
  D:0007H         SYMBOL        rData
  -------         ENDDO         
  C:08B4H         LINE#         111
  C:08B4H         LINE#         112
  C:08B4H         LINE#         113
  C:08B8H         LINE#         115
  C:08BEH         LINE#         116
  C:08BEH         LINE#         117
  C:08C0H         LINE#         118
BL51 BANKED LINKER/LOCATER V6.22.2.0                                                  11/24/2020  16:33:19  PAGE 5


  C:08C2H         LINE#         119
  C:08C6H         LINE#         120
  C:08C9H         LINE#         121
  C:08C9H         LINE#         122
  C:08CCH         LINE#         123
  C:08CEH         LINE#         125
  C:08CEH         LINE#         126
  C:08D1H         LINE#         127
  C:08D1H         LINE#         128
  C:08D3H         LINE#         129
  C:08D5H         LINE#         130
  C:08D5H         LINE#         131
  -------         ENDPROC       IICRECEIVEBYTE
  -------         PROC          _DAC_PCF8591
  D:0005H         SYMBOL        controlByte
  D:0006H         SYMBOL        wData
  C:0800H         LINE#         136
  C:0804H         LINE#         137
  C:0804H         LINE#         138
  C:0807H         LINE#         139
  C:080CH         LINE#         140
  C:080FH         LINE#         141
  C:0812H         LINE#         142
  C:0812H         LINE#         143
  C:0815H         LINE#         145
  C:0815H         LINE#         146
  C:081CH         LINE#         147
  C:081FH         LINE#         148
  C:0822H         LINE#         149
  C:0822H         LINE#         150
  C:0825H         LINE#         152
  C:0825H         LINE#         153
  C:082AH         LINE#         154
  C:082DH         LINE#         155
  C:0830H         LINE#         156
  C:0830H         LINE#         157
  C:0833H         LINE#         159
  C:0833H         LINE#         160
  C:0836H         LINE#         161
  C:083AH         LINE#         162
  C:083EH         LINE#         163
  C:0842H         LINE#         164
  C:0846H         LINE#         165
  -------         ENDPROC       _DAC_PCF8591
  -------         PROC          _DELAY_MS
  D:0007H         SYMBOL        t
  -------         DO            
  D:0006H         SYMBOL        i
  -------         ENDDO         
  C:08D6H         LINE#         170
  C:08D6H         LINE#         171
  C:08D6H         LINE#         173
  C:08D9H         LINE#         174
  C:08E0H         LINE#         175
  C:08E0H         LINE#         176
  C:08E3H         LINE#         177
  C:08E6H         LINE#         178
BL51 BANKED LINKER/LOCATER V6.22.2.0                                                  11/24/2020  16:33:19  PAGE 6


  C:08E8H         LINE#         179
  C:08EBH         LINE#         181
  C:08EDH         LINE#         182
  C:08F0H         LINE#         183
  -------         ENDPROC       _DELAY_MS
  -------         PROC          MAIN
  -------         DO            
  D:0004H         SYMBOL        voltage
  -------         ENDDO         
  C:0847H         LINE#         185
  C:0847H         LINE#         186
  C:0847H         LINE#         188
  C:0849H         LINE#         189
  C:0849H         LINE#         190
  C:0849H         LINE#         191
  C:0850H         LINE#         192
  C:0853H         LINE#         193
  C:0853H         LINE#         194
  C:0858H         LINE#         195
  C:085BH         LINE#         196
  C:085BH         LINE#         197
  C:085FH         LINE#         198
  C:0863H         LINE#         200
  C:0867H         LINE#         201
  C:0867H         LINE#         202
  C:0867H         LINE#         203
  C:086AH         LINE#         204
  C:086AH         LINE#         205
  C:086FH         LINE#         206
  C:0872H         LINE#         207
  C:0872H         LINE#         208
  C:0875H         LINE#         209
  C:0879H         LINE#         211
  C:087DH         LINE#         212
  C:087DH         LINE#         213
  C:087DH         LINE#         214
  C:0882H         LINE#         215
  -------         ENDPROC       MAIN
  -------         ENDMOD        MAIN

*** WARNING L16: UNCALLED SEGMENT, IGNORED FOR OVERLAY PROCESS
    SEGMENT: ?PR?SLAVE_ACK?MAIN

*** WARNING L16: UNCALLED SEGMENT, IGNORED FOR OVERLAY PROCESS
    SEGMENT: ?PR?SLAVE_NOACK?MAIN

*** WARNING L16: UNCALLED SEGMENT, IGNORED FOR OVERLAY PROCESS
    SEGMENT: ?PR?IICRECEIVEBYTE?MAIN

******************************************************************************
* RESTRICTED VERSION WITH 0800H BYTE CODE SIZE LIMIT; USED: 014CH BYTE (16%) *
******************************************************************************

Program Size: data=11.1 xdata=0 code=332
LINK/LOCATE RUN COMPLETE.  3 WARNING(S),  0 ERROR(S)
