BL51 BANKED LINKER/LOCATER V6.22.2.0                                                    12/06/2020  20:09:55  PAGE 1


BL51 BANKED LINKER/LOCATER V6.22.2.0, INVOKED BY:
C:\PROGRAM FILES (X86)\KEIL_V5\C51\BIN\BL51.EXE .\Objects\STARTUP.obj, .\Objects\main.obj TO .\Objects\test PRINT (.\Lis
>> tings\test.m51) RAMSIZE (256)


MEMORY MODEL: SMALL


INPUT MODULES INCLUDED:
  .\Objects\STARTUP.obj (?C_STARTUP)
  .\Objects\main.obj (MAIN)


LINK MAP OF MODULE:  .\Objects\test (?C_STARTUP)


            TYPE    BASE      LENGTH    RELOCATION   SEGMENT NAME
            -----------------------------------------------------

            * * * * * * *   D A T A   M E M O R Y   * * * * * * *
            REG     0000H     0008H     ABSOLUTE     "REG BANK 0"
            DATA    0008H     0004H     UNIT         _DATA_GROUP_
                    000CH     0014H                  *** GAP ***
            BIT     0020H.0   0000H.1   UNIT         _BIT_GROUP_
                    0020H.1   0000H.7                *** GAP ***
            IDATA   0021H     0001H     UNIT         ?STACK

            * * * * * * *   C O D E   M E M O R Y   * * * * * * *
            CODE    0000H     0003H     ABSOLUTE     
                    0003H     07FDH                  *** GAP ***
            CODE    0800H     00D0H     UNIT         ?PR?_OUT_CHAR?MAIN
            CODE    08D0H     00A0H     UNIT         ?CO?MAIN
            CODE    0970H     002CH     UNIT         ?PR?_LCD_CLR?MAIN
            CODE    099CH     0027H     UNIT         ?PR?MAIN?MAIN
            CODE    09C3H     0025H     UNIT         ?PR?LCD_INIT?MAIN
            CODE    09E8H     001AH     UNIT         ?PR?CHECK_BUSY?MAIN
            CODE    0A02H     001AH     UNIT         ?PR?_SELECT_SCREEN?MAIN
            CODE    0A1CH     0010H     UNIT         ?PR?_WRIT_COMD?MAIN
            CODE    0A2CH     0010H     UNIT         ?PR?_WRITE_DAT?MAIN
            CODE    0A3CH     000CH     UNIT         ?C_C51STARTUP
            CODE    0A48H     0009H     UNIT         ?PR?_SET_LINE?MAIN
            CODE    0A51H     0009H     UNIT         ?PR?_SET_COLUMN?MAIN
            CODE    0A5AH     0009H     UNIT         ?PR?_SET_STARTLINE?MAIN
            CODE    0A63H     0006H     UNIT         ?PR?_SET_ONOFF?MAIN



OVERLAY MAP OF MODULE:   .\Objects\test (?C_STARTUP)


SEGMENT                            BIT_GROUP          DATA_GROUP 
  +--> CALLED SEGMENT           START    LENGTH     START    LENGTH
-------------------------------------------------------------------
?C_C51STARTUP                   -----    -----      -----    -----
  +--> ?PR?MAIN?MAIN

?PR?MAIN?MAIN                   -----    -----      0008H    0001H
  +--> ?PR?LCD_INIT?MAIN
BL51 BANKED LINKER/LOCATER V6.22.2.0                                                  12/06/2020  20:09:55  PAGE 2


  +--> ?PR?_OUT_CHAR?MAIN

?PR?LCD_INIT?MAIN               -----    -----      -----    -----
  +--> ?PR?_SELECT_SCREEN?MAIN
  +--> ?PR?_SET_ONOFF?MAIN
  +--> ?PR?_LCD_CLR?MAIN
  +--> ?PR?_SET_STARTLINE?MAIN

?PR?_SET_ONOFF?MAIN             -----    -----      -----    -----
  +--> ?PR?_WRIT_COMD?MAIN

?PR?_WRIT_COMD?MAIN             -----    -----      -----    -----
  +--> ?PR?CHECK_BUSY?MAIN

?PR?_LCD_CLR?MAIN               -----    -----      -----    -----
  +--> ?PR?_SELECT_SCREEN?MAIN
  +--> ?PR?_SET_LINE?MAIN
  +--> ?PR?_WRITE_DAT?MAIN

?PR?_SET_LINE?MAIN              -----    -----      -----    -----
  +--> ?PR?_WRIT_COMD?MAIN

?PR?_WRITE_DAT?MAIN             -----    -----      -----    -----
  +--> ?PR?CHECK_BUSY?MAIN

?PR?_SET_STARTLINE?MAIN         -----    -----      -----    -----
  +--> ?PR?_WRIT_COMD?MAIN

?PR?_OUT_CHAR?MAIN              0020H.0  0000H.1    0009H    0003H
  +--> ?CO?MAIN
  +--> ?PR?_SELECT_SCREEN?MAIN
  +--> ?PR?_SET_COLUMN?MAIN
  +--> ?PR?_SET_LINE?MAIN
  +--> ?PR?_WRITE_DAT?MAIN

?PR?_SET_COLUMN?MAIN            -----    -----      -----    -----
  +--> ?PR?_WRIT_COMD?MAIN



SYMBOL TABLE OF MODULE:  .\Objects\test (?C_STARTUP)

  VALUE           TYPE          NAME
  ----------------------------------

  -------         MODULE        ?C_STARTUP
  C:0A3CH         SEGMENT       ?C_C51STARTUP
  I:0021H         SEGMENT       ?STACK
  C:0000H         PUBLIC        ?C_STARTUP
  D:00E0H         SYMBOL        ACC
  D:00F0H         SYMBOL        B
  D:0083H         SYMBOL        DPH
  D:0082H         SYMBOL        DPL
  N:0000H         SYMBOL        IBPSTACK
  N:0100H         SYMBOL        IBPSTACKTOP
  N:0080H         SYMBOL        IDATALEN
  C:0A3FH         SYMBOL        IDATALOOP
BL51 BANKED LINKER/LOCATER V6.22.2.0                                                  12/06/2020  20:09:55  PAGE 3


  N:0000H         SYMBOL        PBPSTACK
  N:0100H         SYMBOL        PBPSTACKTOP
  N:0000H         SYMBOL        PDATALEN
  N:0000H         SYMBOL        PDATASTART
  N:0000H         SYMBOL        PPAGE
  N:0000H         SYMBOL        PPAGEENABLE
  D:00A0H         SYMBOL        PPAGE_SFR
  D:0081H         SYMBOL        SP
  C:0A3CH         SYMBOL        STARTUP1
  N:0000H         SYMBOL        XBPSTACK
  N:0000H         SYMBOL        XBPSTACKTOP
  N:0000H         SYMBOL        XDATALEN
  N:0000H         SYMBOL        XDATASTART
  C:0000H         LINE#         126
  C:0A3CH         LINE#         133
  C:0A3EH         LINE#         134
  C:0A3FH         LINE#         135
  C:0A40H         LINE#         136
  C:0A42H         LINE#         185
  C:0A45H         LINE#         196
  -------         ENDMOD        ?C_STARTUP

  -------         MODULE        MAIN
  C:0000H         SYMBOL        _ICE_DUMMY_
  C:0A51H         PUBLIC        _Set_Column
  D:0090H         PUBLIC        P1
  D:00A0H         PUBLIC        P2
  D:00B0H         PUBLIC        P3
  B:00A0H.4       PUBLIC        cs1
  C:0A2CH         PUBLIC        _Write_Dat
  B:00A0H.3       PUBLIC        cs2
  C:0A1CH         PUBLIC        _Writ_Comd
  D:00A8H         PUBLIC        IE
  C:0A48H         PUBLIC        _Set_Line
  D:00B8H         PUBLIC        IP
  C:0800H         PUBLIC        _Out_Char
  B:00A0H.2       PUBLIC        RS
  C:099CH         PUBLIC        main
  C:0A02H         PUBLIC        _Select_Screen
  B:00A0H.1       PUBLIC        RW
  C:0A5AH         PUBLIC        _Set_StartLine
  D:0098H         PUBLIC        SCON
  D:0088H         PUBLIC        TCON
  B:00A0H.0       PUBLIC        E
  C:09C3H         PUBLIC        LCD_Init
  C:08D0H         PUBLIC        GB_16
  C:0970H         PUBLIC        _LCD_Clr
  C:09E8H         PUBLIC        Check_Busy
  D:00C8H         PUBLIC        T2CON
  C:0A63H         PUBLIC        _Set_OnOff
  D:00D0H         PUBLIC        PSW
  -------         PROC          CHECK_BUSY
  -------         DO            
  D:0007H         SYMBOL        dat
  -------         ENDDO         
  C:09E8H         LINE#         58
  C:09E8H         LINE#         59
BL51 BANKED LINKER/LOCATER V6.22.2.0                                                  12/06/2020  20:09:55  PAGE 4


  C:09E8H         LINE#         61
  C:09EAH         LINE#         62
  C:09ECH         LINE#         64
  C:09ECH         LINE#         65
  C:09EFH         LINE#         66
  C:09F1H         LINE#         67
  C:09F3H         LINE#         68
  C:09F5H         LINE#         69
  C:09F8H         LINE#         70
  C:0A01H         LINE#         71
  -------         ENDPROC       CHECK_BUSY
  -------         PROC          _WRIT_COMD
  D:0006H         SYMBOL        command
  C:0A1CH         LINE#         74
  C:0A1EH         LINE#         75
  C:0A1EH         LINE#         76
  C:0A21H         LINE#         77
  C:0A23H         LINE#         78
  C:0A25H         LINE#         79
  C:0A27H         LINE#         80
  C:0A29H         LINE#         81
  C:0A2BH         LINE#         82
  -------         ENDPROC       _WRIT_COMD
  -------         PROC          _WRITE_DAT
  D:0006H         SYMBOL        dat
  C:0A2CH         LINE#         85
  C:0A2EH         LINE#         86
  C:0A2EH         LINE#         87
  C:0A31H         LINE#         88
  C:0A33H         LINE#         89
  C:0A35H         LINE#         90
  C:0A37H         LINE#         91
  C:0A39H         LINE#         92
  C:0A3BH         LINE#         93
  -------         ENDPROC       _WRITE_DAT
  -------         PROC          _SET_LINE
  D:0007H         SYMBOL        line
  C:0A48H         LINE#         96
  C:0A48H         LINE#         97
  C:0A48H         LINE#         98
  C:0A4BH         LINE#         99
  C:0A4EH         LINE#         100
  -------         ENDPROC       _SET_LINE
  -------         PROC          _SET_COLUMN
  D:0007H         SYMBOL        column
  C:0A51H         LINE#         104
  C:0A51H         LINE#         105
  C:0A51H         LINE#         106
  C:0A54H         LINE#         107
  C:0A57H         LINE#         108
  -------         ENDPROC       _SET_COLUMN
  -------         PROC          _SET_STARTLINE
  D:0007H         SYMBOL        startline
  C:0A5AH         LINE#         112
  C:0A5AH         LINE#         113
  C:0A5AH         LINE#         114
  C:0A5DH         LINE#         115
BL51 BANKED LINKER/LOCATER V6.22.2.0                                                  12/06/2020  20:09:55  PAGE 5


  C:0A60H         LINE#         116
  -------         ENDPROC       _SET_STARTLINE
  -------         PROC          _SET_ONOFF
  D:0007H         SYMBOL        onoff
  C:0A63H         LINE#         120
  C:0A63H         LINE#         121
  C:0A63H         LINE#         122
  C:0A66H         LINE#         123
  -------         ENDPROC       _SET_ONOFF
  -------         PROC          _SELECT_SCREEN
  D:0007H         SYMBOL        screE
  C:0A02H         LINE#         127
  C:0A02H         LINE#         128
  C:0A02H         LINE#         129
  C:0A0DH         LINE#         130
  C:0A0DH         LINE#         131
  C:0A0DH         LINE#         132
  C:0A0FH         LINE#         133
  C:0A11H         LINE#         134
  C:0A12H         LINE#         135
  C:0A12H         LINE#         136
  C:0A14H         LINE#         137
  C:0A16H         LINE#         138
  C:0A17H         LINE#         139
  C:0A17H         LINE#         140
  C:0A19H         LINE#         141
  C:0A1BH         LINE#         142
  C:0A1BH         LINE#         143
  C:0A1BH         LINE#         144
  -------         ENDPROC       _SELECT_SCREEN
  -------         PROC          _LCD_CLR
  D:0007H         SYMBOL        screE
  -------         DO            
  D:0005H         SYMBOL        i
  D:0004H         SYMBOL        j
  -------         ENDDO         
  C:0970H         LINE#         147
  C:0970H         LINE#         148
  C:0970H         LINE#         150
  C:0973H         LINE#         151
  C:097FH         LINE#         152
  C:097FH         LINE#         153
  C:0984H         LINE#         154
  C:0990H         LINE#         155
  C:0990H         LINE#         156
  C:0995H         LINE#         157
  C:0998H         LINE#         158
  C:099BH         LINE#         159
  -------         ENDPROC       _LCD_CLR
  -------         PROC          LCD_INIT
  -------         DO            
  D:0007H         SYMBOL        i
  -------         ENDDO         
  C:09C3H         LINE#         162
  C:09C3H         LINE#         163
  C:09C3H         LINE#         164
  C:09C5H         LINE#         165
BL51 BANKED LINKER/LOCATER V6.22.2.0                                                  12/06/2020  20:09:55  PAGE 6


  C:09CBH         LINE#         167
  C:09CFH         LINE#         168
  C:09D2H         LINE#         169
  C:09D7H         LINE#         170
  C:09DCH         LINE#         171
  C:09E0H         LINE#         172
  C:09E5H         LINE#         173
  -------         ENDPROC       LCD_INIT
  -------         PROC          _OUT_CHAR
  D:0004H         SYMBOL        x
  D:0009H         SYMBOL        y
  D:0001H         SYMBOL        i
  B:0020H.0       SYMBOL        mode
  -------         DO            
  D:0005H         SYMBOL        k
  D:000AH         SYMBOL        cData
  -------         ENDDO         
  C:0800H         LINE#         177
  C:0806H         LINE#         178
  C:0806H         LINE#         181
  C:0818H         LINE#         182
  C:0818H         LINE#         183
  C:0822H         LINE#         184
  C:083CH         LINE#         186
  C:0856H         LINE#         187
  C:0861H         LINE#         188
  C:0861H         LINE#         189
  C:0874H         LINE#         190
  C:0874H         LINE#         191
  C:0879H         LINE#         192
  C:087BH         LINE#         193
  C:087DH         LINE#         195
  C:087DH         LINE#         196
  C:0882H         LINE#         197
  C:088AH         LINE#         198
  C:088AH         LINE#         199
  C:088CH         LINE#         200
  C:088EH         LINE#         202
  C:088EH         LINE#         203
  C:08A7H         LINE#         204
  C:08A7H         LINE#         205
  C:08ACH         LINE#         206
  C:08B0H         LINE#         207
  C:08B2H         LINE#         209
  C:08B2H         LINE#         210
  C:08B7H         LINE#         211
  C:08BFH         LINE#         212
  C:08BFH         LINE#         213
  C:08C6H         LINE#         214
  C:08C6H         LINE#         215
  C:08CBH         LINE#         216
  C:08CFH         LINE#         217
  -------         ENDPROC       _OUT_CHAR
  -------         PROC          MAIN
  -------         DO            
  D:0002H         SYMBOL        i
  D:0008H         SYMBOL        j
BL51 BANKED LINKER/LOCATER V6.22.2.0                                                  12/06/2020  20:09:55  PAGE 7


  -------         ENDDO         
  C:099CH         LINE#         218
  C:099CH         LINE#         219
  C:099CH         LINE#         220
  C:099FH         LINE#         221
  C:09A2H         LINE#         222
  C:09AEH         LINE#         223
  C:09AEH         LINE#         224
  C:09B9H         LINE#         225
  C:09BFH         LINE#         226
  C:09C2H         LINE#         227
  -------         ENDPROC       MAIN
  -------         ENDMOD        MAIN

******************************************************************************
* RESTRICTED VERSION WITH 0800H BYTE CODE SIZE LIMIT; USED: 026CH BYTE (30%) *
******************************************************************************

Program Size: data=13.1 xdata=0 code=620
LINK/LOCATE RUN COMPLETE.  0 WARNING(S),  0 ERROR(S)
